Certificate:
    Data:
        Version: 3 (0x2)
        Serial Number:
            62:8a:39:42:b9:f1:e2:6c:92:3e:3e:71:cd:00:6f:75
        Signature Algorithm: ecdsa-with-SHA256
        Issuer: CN=cn_80DtKKY4PQ7RLalA
        Validity
            Not Before: Jun 19 19:59:46 2023 GMT
            Not After : Sep 21 19:59:46 2025 GMT
        Subject: CN=aaaaaaaaaaaaaaaaaaaaaaaaaaaaaaaaaaaaaawuiqowhoh
        Subject Public Key Info:
            Public Key Algorithm: id-ecPublicKey
                Public-Key: (256 bit)
                pub:
                    04:e1:a0:cb:4f:da:4e:90:c0:d0:9b:bf:4d:c8:42:
                    13:c5:77:bc:2f:a5:99:89:2c:84:51:ff:54:9a:5b:
                    11:f2:fc:9f:f3:5e:c4:11:d5:39:4b:b5:c9:ac:47:
                    27:5d:4a:e4:3d:eb:ca:2f:9d:f4:d6:e8:da:e9:af:
                    e4:2f:fb:92:e0
                ASN1 OID: prime256v1
                NIST CURVE: P-256
        X509v3 extensions:
            X509v3 Basic Constraints: 
                CA:FALSE
            X509v3 Subject Key Identifier: 
                A6:C0:13:C1:E3:A9:F1:46:5B:95:33:B1:4E:6C:72:1E:40:9A:12:AF
            X509v3 Authority Key Identifier: 
                keyid:8A:44:7B:95:12:20:C6:90:9B:57:69:39:95:92:CD:70:96:4D:74:99
                DirName:/CN=cn_80DtKKY4PQ7RLalA
                serial:25:62:72:53:65:2C:6C:01:85:B1:96:26:10:86:58:E3:43:67:9A:3C
            X509v3 Extended Key Usage: 
                TLS Web Server Authentication
            X509v3 Key Usage: 
                Digital Signature, Key Encipherment
            X509v3 Subject Alternative Name: 
                DNS:aaaaaaaaaaaaaaaaaaaaaaaaaaaaaaaaaaaaaawuiqowhoh
    Signature Algorithm: ecdsa-with-SHA256
    Signature Value:
        30:44:02:20:4a:0b:c6:78:bf:2d:5b:8b:45:94:1b:68:47:6b:
        d1:10:30:6c:cf:e7:0b:7c:a2:31:5a:10:b4:f3:af:69:02:e4:
        02:20:7a:10:38:f5:6c:2e:7a:e9:f5:61:c7:54:36:55:42:30:
        ce:05:81:62:fa:e3:83:8f:0b:ea:cf:83:30:58:aa:41
-----BEGIN CERTIFICATE-----
MIICPDCCAeOgAwIBAgIQYoo5Qrnx4mySPj5xzQBvdTAKBggqhkjOPQQDAjAeMRww
GgYDVQQDDBNjbl84MER0S0tZNFBRN1JMYWxBMB4XDTIzMDYxOTE5NTk0NloXDTI1
MDkyMTE5NTk0NlowOjE4MDYGA1UEAwwvYWFhYWFhYWFhYWFhYWFhYWFhYWFhYWFh
YWFhYWFhYWFhYWFhYWF3dWlxb3dob2gwWTATBgcqhkjOPQIBBggqhkjOPQMBBwNC
AAThoMtP2k6QwNCbv03IQhPFd7wvpZmJLIRR/1SaWxHy/J/zXsQR1TlLtcmsRydd
SuQ968ovnfTW6Nrpr+Qv+5Lgo4HmMIHjMAkGA1UdEwQCMAAwHQYDVR0OBBYEFKbA
E8HjqfFGW5UzsU5sch5AmhKvMFkGA1UdIwRSMFCAFIpEe5USIMaQm1dpOZWSzXCW
TXSZoSKkIDAeMRwwGgYDVQQDDBNjbl84MER0S0tZNFBRN1JMYWxBghQlYnJTZSxs
AYWxliYQhljjQ2eaPDATBgNVHSUEDDAKBggrBgEFBQcDATALBgNVHQ8EBAMCBaAw
OgYDVR0RBDMwMYIvYWFhYWFhYWFhYWFhYWFhYWFhYWFhYWFhYWFhYWFhYWFhYWFh
YWF3dWlxb3dob2gwCgYIKoZIzj0EAwIDRwAwRAIgSgvGeL8tW4tFlBtoR2vREDBs
z+cLfKIxWhC0869pAuQCIHoQOPVsLnrp9WHHVDZVQjDOBYFi+uODjwvqz4MwWKpB
-----END CERTIFICATE-----
