Certificate:
    Data:
        Version: 3 (0x2)
        Serial Number:
            c6:12:79:5a:36:25:51:73:83:72:2b:a1:0e:61:20:8a
        Signature Algorithm: ecdsa-with-SHA256
        Issuer: CN=cn_80DtKKY4PQ7RLalA
        Validity
            Not Before: Jun 24 19:12:56 2023 GMT
            Not After : Sep 26 19:12:56 2025 GMT
        Subject: CN=AnotherExample
        Subject Public Key Info:
            Public Key Algorithm: id-ecPublicKey
                Public-Key: (256 bit)
                pub:
                    04:10:ca:6e:89:79:7e:6e:47:5a:51:dc:21:18:7f:
                    cb:ad:ae:94:21:bd:01:b4:4f:0d:da:be:65:0e:de:
                    3d:12:11:93:a4:d0:27:08:dd:4a:fb:da:6b:9e:b9:
                    dc:02:21:66:8c:e0:dd:77:07:88:64:22:cb:5a:3b:
                    16:52:e1:28:f1
                ASN1 OID: prime256v1
                NIST CURVE: P-256
        X509v3 extensions:
            X509v3 Basic Constraints: 
                CA:FALSE
            X509v3 Subject Key Identifier: 
                3D:28:1C:72:40:B5:2D:69:1B:29:6F:FE:B5:B1:B9:23:59:43:EE:1D
            X509v3 Authority Key Identifier: 
                keyid:8A:44:7B:95:12:20:C6:90:9B:57:69:39:95:92:CD:70:96:4D:74:99
                DirName:/CN=cn_80DtKKY4PQ7RLalA
                serial:25:62:72:53:65:2C:6C:01:85:B1:96:26:10:86:58:E3:43:67:9A:3C
            X509v3 Extended Key Usage: 
                TLS Web Server Authentication
            X509v3 Key Usage: 
                Digital Signature, Key Encipherment
            X509v3 Subject Alternative Name: 
                DNS:AnotherExample
    Signature Algorithm: ecdsa-with-SHA256
    Signature Value:
        30:44:02:20:2f:8c:79:09:70:d9:2b:96:b5:9e:b1:16:a4:1f:
        59:27:66:7e:de:d2:39:38:77:3d:6c:ec:d6:e5:4e:08:f4:da:
        02:20:10:3b:28:45:49:d0:43:a8:7d:f4:26:01:0a:81:dc:5c:
        96:8c:ae:2f:3b:01:47:b5:7f:b9:79:bd:f9:9b:25:e5
-----BEGIN CERTIFICATE-----
MIIB+zCCAaKgAwIBAgIRAMYSeVo2JVFzg3IroQ5hIIowCgYIKoZIzj0EAwIwHjEc
MBoGA1UEAwwTY25fODBEdEtLWTRQUTdSTGFsQTAeFw0yMzA2MjQxOTEyNTZaFw0y
NTA5MjYxOTEyNTZaMBkxFzAVBgNVBAMMDkFub3RoZXJFeGFtcGxlMFkwEwYHKoZI
zj0CAQYIKoZIzj0DAQcDQgAEEMpuiXl+bkdaUdwhGH/Lra6UIb0BtE8N2r5lDt49
EhGTpNAnCN1K+9prnrncAiFmjODddweIZCLLWjsWUuEo8aOBxTCBwjAJBgNVHRME
AjAAMB0GA1UdDgQWBBQ9KBxyQLUtaRspb/61sbkjWUPuHTBZBgNVHSMEUjBQgBSK
RHuVEiDGkJtXaTmVks1wlk10maEipCAwHjEcMBoGA1UEAwwTY25fODBEdEtLWTRQ
UTdSTGFsQYIUJWJyU2UsbAGFsZYmEIZY40NnmjwwEwYDVR0lBAwwCgYIKwYBBQUH
AwEwCwYDVR0PBAQDAgWgMBkGA1UdEQQSMBCCDkFub3RoZXJFeGFtcGxlMAoGCCqG
SM49BAMCA0cAMEQCIC+MeQlw2SuWtZ6xFqQfWSdmft7SOTh3PWzs1uVOCPTaAiAQ
OyhFSdBDqH30JgEKgdxcloyuLzsBR7V/uXm9+Zsl5Q==
-----END CERTIFICATE-----
