Certificate:
    Data:
        Version: 3 (0x2)
        Serial Number:
            a3:c7:13:d3:15:ad:8a:a7:9a:64:06:68:dc:d7:7a:16
        Signature Algorithm: ecdsa-with-SHA256
        Issuer: CN=cn_80DtKKY4PQ7RLalA
        Validity
            Not Before: Jun 23 21:25:13 2023 GMT
            Not After : Sep 25 21:25:13 2025 GMT
        Subject: CN=CreoQueAhoraSi
        Subject Public Key Info:
            Public Key Algorithm: id-ecPublicKey
                Public-Key: (256 bit)
                pub:
                    04:ca:e9:d4:e6:8b:0a:ea:fc:de:1a:ab:76:a9:89:
                    23:01:ea:3e:78:69:81:39:8b:88:f5:a5:c2:d5:f0:
                    80:69:43:56:8d:37:e2:db:81:b3:16:17:0b:c9:59:
                    ff:28:66:a6:c7:c0:cb:a1:b1:f1:d7:83:28:59:12:
                    ee:1d:b5:88:35
                ASN1 OID: prime256v1
                NIST CURVE: P-256
        X509v3 extensions:
            X509v3 Basic Constraints: 
                CA:FALSE
            X509v3 Subject Key Identifier: 
                91:6F:01:4B:8F:72:F9:85:55:1B:89:AE:86:D2:C4:74:54:70:31:12
            X509v3 Authority Key Identifier: 
                keyid:8A:44:7B:95:12:20:C6:90:9B:57:69:39:95:92:CD:70:96:4D:74:99
                DirName:/CN=cn_80DtKKY4PQ7RLalA
                serial:25:62:72:53:65:2C:6C:01:85:B1:96:26:10:86:58:E3:43:67:9A:3C
            X509v3 Extended Key Usage: 
                TLS Web Server Authentication
            X509v3 Key Usage: 
                Digital Signature, Key Encipherment
            X509v3 Subject Alternative Name: 
                DNS:CreoQueAhoraSi
    Signature Algorithm: ecdsa-with-SHA256
    Signature Value:
        30:45:02:20:40:46:e7:9d:63:9f:99:86:00:c1:26:4b:8d:90:
        ea:b5:27:c1:46:b8:20:f8:6a:fd:9f:bd:a2:bc:60:ae:62:96:
        02:21:00:90:e3:8d:b1:63:77:0c:4e:b6:63:7b:67:10:ce:65:
        53:b8:26:8b:c4:ab:a8:12:d6:68:fe:5d:ba:d4:fa:8f:4e
-----BEGIN CERTIFICATE-----
MIIB/DCCAaKgAwIBAgIRAKPHE9MVrYqnmmQGaNzXehYwCgYIKoZIzj0EAwIwHjEc
MBoGA1UEAwwTY25fODBEdEtLWTRQUTdSTGFsQTAeFw0yMzA2MjMyMTI1MTNaFw0y
NTA5MjUyMTI1MTNaMBkxFzAVBgNVBAMMDkNyZW9RdWVBaG9yYVNpMFkwEwYHKoZI
zj0CAQYIKoZIzj0DAQcDQgAEyunU5osK6vzeGqt2qYkjAeo+eGmBOYuI9aXC1fCA
aUNWjTfi24GzFhcLyVn/KGamx8DLobHx14MoWRLuHbWINaOBxTCBwjAJBgNVHRME
AjAAMB0GA1UdDgQWBBSRbwFLj3L5hVUbia6G0sR0VHAxEjBZBgNVHSMEUjBQgBSK
RHuVEiDGkJtXaTmVks1wlk10maEipCAwHjEcMBoGA1UEAwwTY25fODBEdEtLWTRQ
UTdSTGFsQYIUJWJyU2UsbAGFsZYmEIZY40NnmjwwEwYDVR0lBAwwCgYIKwYBBQUH
AwEwCwYDVR0PBAQDAgWgMBkGA1UdEQQSMBCCDkNyZW9RdWVBaG9yYVNpMAoGCCqG
SM49BAMCA0gAMEUCIEBG551jn5mGAMEmS42Q6rUnwUa4IPhq/Z+9orxgrmKWAiEA
kOONsWN3DE62Y3tnEM5lU7gmi8SrqBLWaP5dutT6j04=
-----END CERTIFICATE-----
