Certificate:
    Data:
        Version: 3 (0x2)
        Serial Number:
            27:b3:48:78:6c:63:a9:a4:78:c2:5e:2c:22:14:29:43
        Signature Algorithm: ecdsa-with-SHA256
        Issuer: CN=cn_80DtKKY4PQ7RLalA
        Validity
            Not Before: Jul 12 16:52:12 2023 GMT
            Not After : Oct 14 16:52:12 2025 GMT
        Subject: CN=LOLOLOLO
        Subject Public Key Info:
            Public Key Algorithm: id-ecPublicKey
                Public-Key: (256 bit)
                pub:
                    04:8b:e8:fb:2e:ad:17:d1:30:04:9f:5d:b0:7e:b5:
                    4a:f2:ae:7f:b9:d1:4a:21:d6:42:34:cc:d5:e5:a9:
                    e8:27:49:ca:44:ca:60:58:0f:06:fb:af:9e:3c:72:
                    f7:45:40:d0:55:f3:5e:2a:53:58:43:74:10:f4:04:
                    55:de:08:fb:9b
                ASN1 OID: prime256v1
                NIST CURVE: P-256
        X509v3 extensions:
            X509v3 Basic Constraints: 
                CA:FALSE
            X509v3 Subject Key Identifier: 
                3C:DB:17:49:9B:7D:E5:1E:CE:5B:5D:AE:BC:74:2D:1A:F7:33:8C:8B
            X509v3 Authority Key Identifier: 
                keyid:8A:44:7B:95:12:20:C6:90:9B:57:69:39:95:92:CD:70:96:4D:74:99
                DirName:/CN=cn_80DtKKY4PQ7RLalA
                serial:25:62:72:53:65:2C:6C:01:85:B1:96:26:10:86:58:E3:43:67:9A:3C
            X509v3 Extended Key Usage: 
                TLS Web Server Authentication
            X509v3 Key Usage: 
                Digital Signature, Key Encipherment
            X509v3 Subject Alternative Name: 
                DNS:LOLOLOLO
    Signature Algorithm: ecdsa-with-SHA256
    Signature Value:
        30:45:02:21:00:b1:b5:7c:1b:cc:d4:da:a5:20:46:29:d8:ae:
        69:ed:d5:5a:da:6a:47:fa:dc:ae:b8:be:e9:dc:5c:ca:55:74:
        ca:02:20:03:20:41:e3:51:dc:4b:89:c4:92:30:11:ae:45:d9:
        5c:81:e9:19:ff:d6:0a:05:dd:1b:a4:05:0b:22:3f:03:e3
-----BEGIN CERTIFICATE-----
MIIB7zCCAZWgAwIBAgIQJ7NIeGxjqaR4wl4sIhQpQzAKBggqhkjOPQQDAjAeMRww
GgYDVQQDDBNjbl84MER0S0tZNFBRN1JMYWxBMB4XDTIzMDcxMjE2NTIxMloXDTI1
MTAxNDE2NTIxMlowEzERMA8GA1UEAwwITE9MT0xPTE8wWTATBgcqhkjOPQIBBggq
hkjOPQMBBwNCAASL6PsurRfRMASfXbB+tUryrn+50Uoh1kI0zNXlqegnScpEymBY
Dwb7r548cvdFQNBV814qU1hDdBD0BFXeCPubo4G/MIG8MAkGA1UdEwQCMAAwHQYD
VR0OBBYEFDzbF0mbfeUezltdrrx0LRr3M4yLMFkGA1UdIwRSMFCAFIpEe5USIMaQ
m1dpOZWSzXCWTXSZoSKkIDAeMRwwGgYDVQQDDBNjbl84MER0S0tZNFBRN1JMYWxB
ghQlYnJTZSxsAYWxliYQhljjQ2eaPDATBgNVHSUEDDAKBggrBgEFBQcDATALBgNV
HQ8EBAMCBaAwEwYDVR0RBAwwCoIITE9MT0xPTE8wCgYIKoZIzj0EAwIDSAAwRQIh
ALG1fBvM1NqlIEYp2K5p7dVa2mpH+tyuuL7p3FzKVXTKAiADIEHjUdxLicSSMBGu
RdlcgekZ/9YKBd0bpAULIj8D4w==
-----END CERTIFICATE-----
