Certificate:
    Data:
        Version: 3 (0x2)
        Serial Number:
            4f:ff:a9:9a:66:61:c4:d5:83:b8:6b:22:86:34:c4:9d
        Signature Algorithm: ecdsa-with-SHA256
        Issuer: CN=cn_80DtKKY4PQ7RLalA
        Validity
            Not Before: Jun 23 21:31:39 2023 GMT
            Not After : Sep 25 21:31:39 2025 GMT
        Subject: CN=ProbandoNuevoCIDR
        Subject Public Key Info:
            Public Key Algorithm: id-ecPublicKey
                Public-Key: (256 bit)
                pub:
                    04:28:be:ca:d6:b3:01:dc:3d:24:b0:a7:61:b4:e8:
                    b4:b2:63:bd:01:d9:0d:a0:32:08:04:c4:fb:0b:7e:
                    ca:b4:de:cc:2d:65:11:5e:51:59:dc:a2:14:99:dd:
                    f2:3a:37:aa:aa:d6:1c:4e:20:f0:5c:b5:eb:3e:e2:
                    1c:51:8c:8b:ee
                ASN1 OID: prime256v1
                NIST CURVE: P-256
        X509v3 extensions:
            X509v3 Basic Constraints: 
                CA:FALSE
            X509v3 Subject Key Identifier: 
                AF:34:E3:52:6E:A1:04:99:C8:9C:5D:0E:B2:9E:95:0A:E6:F4:1A:EB
            X509v3 Authority Key Identifier: 
                keyid:8A:44:7B:95:12:20:C6:90:9B:57:69:39:95:92:CD:70:96:4D:74:99
                DirName:/CN=cn_80DtKKY4PQ7RLalA
                serial:25:62:72:53:65:2C:6C:01:85:B1:96:26:10:86:58:E3:43:67:9A:3C
            X509v3 Extended Key Usage: 
                TLS Web Server Authentication
            X509v3 Key Usage: 
                Digital Signature, Key Encipherment
            X509v3 Subject Alternative Name: 
                DNS:ProbandoNuevoCIDR
    Signature Algorithm: ecdsa-with-SHA256
    Signature Value:
        30:44:02:20:5f:c8:50:6b:fa:88:c4:2b:9e:67:89:96:10:3c:
        91:5a:ce:f9:0e:b9:1e:62:9d:60:8b:c0:77:f8:51:bd:d7:e6:
        02:20:12:40:13:66:6a:aa:b6:f6:f3:ca:f8:ee:7b:bb:47:ed:
        cc:a4:2a:20:95:45:99:4e:44:be:b3:99:fc:66:7c:1e
-----BEGIN CERTIFICATE-----
MIICADCCAaegAwIBAgIQT/+pmmZhxNWDuGsihjTEnTAKBggqhkjOPQQDAjAeMRww
GgYDVQQDDBNjbl84MER0S0tZNFBRN1JMYWxBMB4XDTIzMDYyMzIxMzEzOVoXDTI1
MDkyNTIxMzEzOVowHDEaMBgGA1UEAwwRUHJvYmFuZG9OdWV2b0NJRFIwWTATBgcq
hkjOPQIBBggqhkjOPQMBBwNCAAQovsrWswHcPSSwp2G06LSyY70B2Q2gMggExPsL
fsq03swtZRFeUVncohSZ3fI6N6qq1hxOIPBctes+4hxRjIvuo4HIMIHFMAkGA1Ud
EwQCMAAwHQYDVR0OBBYEFK8041JuoQSZyJxdDrKelQrm9BrrMFkGA1UdIwRSMFCA
FIpEe5USIMaQm1dpOZWSzXCWTXSZoSKkIDAeMRwwGgYDVQQDDBNjbl84MER0S0tZ
NFBRN1JMYWxBghQlYnJTZSxsAYWxliYQhljjQ2eaPDATBgNVHSUEDDAKBggrBgEF
BQcDATALBgNVHQ8EBAMCBaAwHAYDVR0RBBUwE4IRUHJvYmFuZG9OdWV2b0NJRFIw
CgYIKoZIzj0EAwIDRwAwRAIgX8hQa/qIxCueZ4mWEDyRWs75DrkeYp1gi8B3+FG9
1+YCIBJAE2Zqqrb288r47nu7R+3MpCoglUWZTkS+s5n8Znwe
-----END CERTIFICATE-----
