Certificate:
    Data:
        Version: 3 (0x2)
        Serial Number:
            01:81:c3:00:14:ad:dd:b3:8b:6f:44:2e:01:28:7d:0f
        Signature Algorithm: ecdsa-with-SHA256
        Issuer: CN=cn_80DtKKY4PQ7RLalA
        Validity
            Not Before: Jun 23 21:43:54 2023 GMT
            Not After : Sep 25 21:43:54 2025 GMT
        Subject: CN=aaaaaaaaaaaaaaaa
        Subject Public Key Info:
            Public Key Algorithm: id-ecPublicKey
                Public-Key: (256 bit)
                pub:
                    04:f1:22:ab:67:46:93:4b:b7:77:55:92:93:79:82:
                    fb:48:92:09:0c:8f:49:00:6f:79:ec:87:7b:cd:17:
                    2f:6a:e6:66:ce:3f:59:34:29:43:eb:39:88:90:6b:
                    e0:6d:4a:ea:b7:ad:b4:e5:11:b4:ae:a4:9a:25:1c:
                    5d:39:00:ea:97
                ASN1 OID: prime256v1
                NIST CURVE: P-256
        X509v3 extensions:
            X509v3 Basic Constraints: 
                CA:FALSE
            X509v3 Subject Key Identifier: 
                0D:7A:D4:CF:3B:14:A7:B4:A2:FE:6E:5E:88:B5:16:F9:6F:C4:4F:BB
            X509v3 Authority Key Identifier: 
                keyid:8A:44:7B:95:12:20:C6:90:9B:57:69:39:95:92:CD:70:96:4D:74:99
                DirName:/CN=cn_80DtKKY4PQ7RLalA
                serial:25:62:72:53:65:2C:6C:01:85:B1:96:26:10:86:58:E3:43:67:9A:3C
            X509v3 Extended Key Usage: 
                TLS Web Server Authentication
            X509v3 Key Usage: 
                Digital Signature, Key Encipherment
            X509v3 Subject Alternative Name: 
                DNS:aaaaaaaaaaaaaaaa
    Signature Algorithm: ecdsa-with-SHA256
    Signature Value:
        30:46:02:21:00:84:95:c7:56:1c:da:3e:59:66:fa:b9:b1:45:
        dc:9a:5c:09:2e:7f:c6:2a:b0:66:07:6a:27:a7:14:a8:5f:c1:
        50:02:21:00:f3:d3:2a:d7:79:c2:ba:1b:5f:7b:6d:fd:02:05:
        87:2a:c9:4a:42:8c:b3:a6:87:86:40:85:3c:2f:2e:eb:20:53
-----BEGIN CERTIFICATE-----
MIICADCCAaWgAwIBAgIQAYHDABSt3bOLb0QuASh9DzAKBggqhkjOPQQDAjAeMRww
GgYDVQQDDBNjbl84MER0S0tZNFBRN1JMYWxBMB4XDTIzMDYyMzIxNDM1NFoXDTI1
MDkyNTIxNDM1NFowGzEZMBcGA1UEAwwQYWFhYWFhYWFhYWFhYWFhYTBZMBMGByqG
SM49AgEGCCqGSM49AwEHA0IABPEiq2dGk0u3d1WSk3mC+0iSCQyPSQBveeyHe80X
L2rmZs4/WTQpQ+s5iJBr4G1K6rettOURtK6kmiUcXTkA6pejgccwgcQwCQYDVR0T
BAIwADAdBgNVHQ4EFgQUDXrUzzsUp7Si/m5eiLUW+W/ET7swWQYDVR0jBFIwUIAU
ikR7lRIgxpCbV2k5lZLNcJZNdJmhIqQgMB4xHDAaBgNVBAMME2NuXzgwRHRLS1k0
UFE3UkxhbEGCFCViclNlLGwBhbGWJhCGWONDZ5o8MBMGA1UdJQQMMAoGCCsGAQUF
BwMBMAsGA1UdDwQEAwIFoDAbBgNVHREEFDASghBhYWFhYWFhYWFhYWFhYWFhMAoG
CCqGSM49BAMCA0kAMEYCIQCElcdWHNo+WWb6ubFF3JpcCS5/xiqwZgdqJ6cUqF/B
UAIhAPPTKtd5wrobX3tt/QIFhyrJSkKMs6aHhkCFPC8u6yBT
-----END CERTIFICATE-----
