Certificate:
    Data:
        Version: 3 (0x2)
        Serial Number:
            73:29:79:70:09:d4:95:b6:5a:ee:a3:7a:d1:5b:20:7d
        Signature Algorithm: ecdsa-with-SHA256
        Issuer: CN=cn_80DtKKY4PQ7RLalA
        Validity
            Not Before: Jun 22 20:49:01 2023 GMT
            Not After : Sep 24 20:49:01 2025 GMT
        Subject: CN=EsperemosQueAhoraSi
        Subject Public Key Info:
            Public Key Algorithm: id-ecPublicKey
                Public-Key: (256 bit)
                pub:
                    04:d3:bb:85:2c:ef:9b:96:eb:08:2e:48:41:8a:9e:
                    5e:cc:75:03:a3:93:cf:3c:b3:c4:4e:3d:eb:b9:48:
                    71:f9:8f:b3:ff:ce:3f:61:41:0b:10:bc:15:d0:a3:
                    6a:dd:e1:02:b3:20:5f:61:7f:37:eb:5f:61:02:31:
                    5d:da:dc:ce:93
                ASN1 OID: prime256v1
                NIST CURVE: P-256
        X509v3 extensions:
            X509v3 Basic Constraints: 
                CA:FALSE
            X509v3 Subject Key Identifier: 
                CF:91:58:0A:59:B0:F1:D2:11:AB:A6:1B:48:0D:0C:05:F2:0D:83:6E
            X509v3 Authority Key Identifier: 
                keyid:8A:44:7B:95:12:20:C6:90:9B:57:69:39:95:92:CD:70:96:4D:74:99
                DirName:/CN=cn_80DtKKY4PQ7RLalA
                serial:25:62:72:53:65:2C:6C:01:85:B1:96:26:10:86:58:E3:43:67:9A:3C
            X509v3 Extended Key Usage: 
                TLS Web Server Authentication
            X509v3 Key Usage: 
                Digital Signature, Key Encipherment
            X509v3 Subject Alternative Name: 
                DNS:EsperemosQueAhoraSi
    Signature Algorithm: ecdsa-with-SHA256
    Signature Value:
        30:45:02:20:7c:3f:f3:cb:72:07:2f:ad:aa:0a:50:a8:76:2e:
        c9:9c:83:c2:cf:fc:03:29:46:e4:b4:67:a8:f5:02:ff:83:31:
        02:21:00:ba:0c:fa:cb:6f:d9:55:cd:35:de:06:2a:6a:f3:f9:
        10:1a:12:de:ed:f9:2b:99:0d:05:e9:6f:39:69:0b:a1:e0
-----BEGIN CERTIFICATE-----
MIICBTCCAaugAwIBAgIQcyl5cAnUlbZa7qN60VsgfTAKBggqhkjOPQQDAjAeMRww
GgYDVQQDDBNjbl84MER0S0tZNFBRN1JMYWxBMB4XDTIzMDYyMjIwNDkwMVoXDTI1
MDkyNDIwNDkwMVowHjEcMBoGA1UEAwwTRXNwZXJlbW9zUXVlQWhvcmFTaTBZMBMG
ByqGSM49AgEGCCqGSM49AwEHA0IABNO7hSzvm5brCC5IQYqeXsx1A6OTzzyzxE49
67lIcfmPs//OP2FBCxC8FdCjat3hArMgX2F/N+tfYQIxXdrczpOjgcowgccwCQYD
VR0TBAIwADAdBgNVHQ4EFgQUz5FYClmw8dIRq6YbSA0MBfINg24wWQYDVR0jBFIw
UIAUikR7lRIgxpCbV2k5lZLNcJZNdJmhIqQgMB4xHDAaBgNVBAMME2NuXzgwRHRL
S1k0UFE3UkxhbEGCFCViclNlLGwBhbGWJhCGWONDZ5o8MBMGA1UdJQQMMAoGCCsG
AQUFBwMBMAsGA1UdDwQEAwIFoDAeBgNVHREEFzAVghNFc3BlcmVtb3NRdWVBaG9y
YVNpMAoGCCqGSM49BAMCA0gAMEUCIHw/88tyBy+tqgpQqHYuyZyDws/8AylG5LRn
qPUC/4MxAiEAugz6y2/ZVc013gYqavP5EBoS3u35K5kNBelvOWkLoeA=
-----END CERTIFICATE-----
