Certificate:
    Data:
        Version: 3 (0x2)
        Serial Number:
            e4:cc:d3:5c:7e:b3:c7:e9:1b:04:e4:20:5c:4d:30:f1
        Signature Algorithm: ecdsa-with-SHA256
        Issuer: CN=cn_80DtKKY4PQ7RLalA
        Validity
            Not Before: Jun 24 08:55:14 2023 GMT
            Not After : Sep 26 08:55:14 2025 GMT
        Subject: CN=ConOtraConf
        Subject Public Key Info:
            Public Key Algorithm: id-ecPublicKey
                Public-Key: (256 bit)
                pub:
                    04:55:c7:36:2f:03:f6:f1:f6:24:3e:dd:e2:01:4c:
                    dc:37:94:b7:cd:cc:c7:8d:b2:f7:91:9f:ea:6e:cb:
                    25:d6:9e:09:79:15:a5:7b:66:be:67:99:7f:89:bc:
                    ce:fb:c2:7b:4d:84:39:e9:60:66:c1:2a:23:49:a6:
                    64:08:c0:30:fc
                ASN1 OID: prime256v1
                NIST CURVE: P-256
        X509v3 extensions:
            X509v3 Basic Constraints: 
                CA:FALSE
            X509v3 Subject Key Identifier: 
                94:63:08:24:5C:E4:DC:95:FC:C3:AA:97:BD:92:74:90:98:81:A4:F7
            X509v3 Authority Key Identifier: 
                keyid:8A:44:7B:95:12:20:C6:90:9B:57:69:39:95:92:CD:70:96:4D:74:99
                DirName:/CN=cn_80DtKKY4PQ7RLalA
                serial:25:62:72:53:65:2C:6C:01:85:B1:96:26:10:86:58:E3:43:67:9A:3C
            X509v3 Extended Key Usage: 
                TLS Web Server Authentication
            X509v3 Key Usage: 
                Digital Signature, Key Encipherment
            X509v3 Subject Alternative Name: 
                DNS:ConOtraConf
    Signature Algorithm: ecdsa-with-SHA256
    Signature Value:
        30:44:02:20:30:d7:e9:1a:09:80:55:37:90:76:5d:84:48:e7:
        c4:7a:89:ef:d5:e6:da:0b:98:8c:a2:71:fd:e5:20:9d:ec:a0:
        02:20:37:25:fa:76:cb:e2:8d:ef:1e:5a:2a:4e:9a:24:ed:36:
        c5:81:d1:67:48:e4:4c:65:6e:08:28:43:37:2a:e0:4b
-----BEGIN CERTIFICATE-----
MIIB9TCCAZygAwIBAgIRAOTM01x+s8fpGwTkIFxNMPEwCgYIKoZIzj0EAwIwHjEc
MBoGA1UEAwwTY25fODBEdEtLWTRQUTdSTGFsQTAeFw0yMzA2MjQwODU1MTRaFw0y
NTA5MjYwODU1MTRaMBYxFDASBgNVBAMMC0Nvbk90cmFDb25mMFkwEwYHKoZIzj0C
AQYIKoZIzj0DAQcDQgAEVcc2LwP28fYkPt3iAUzcN5S3zczHjbL3kZ/qbssl1p4J
eRWle2a+Z5l/ibzO+8J7TYQ56WBmwSojSaZkCMAw/KOBwjCBvzAJBgNVHRMEAjAA
MB0GA1UdDgQWBBSUYwgkXOTclfzDqpe9knSQmIGk9zBZBgNVHSMEUjBQgBSKRHuV
EiDGkJtXaTmVks1wlk10maEipCAwHjEcMBoGA1UEAwwTY25fODBEdEtLWTRQUTdS
TGFsQYIUJWJyU2UsbAGFsZYmEIZY40NnmjwwEwYDVR0lBAwwCgYIKwYBBQUHAwEw
CwYDVR0PBAQDAgWgMBYGA1UdEQQPMA2CC0Nvbk90cmFDb25mMAoGCCqGSM49BAMC
A0cAMEQCIDDX6RoJgFU3kHZdhEjnxHqJ79Xm2guYjKJx/eUgneygAiA3Jfp2y+KN
7x5aKk6aJO02xYHRZ0jkTGVuCChDNyrgSw==
-----END CERTIFICATE-----
