Certificate:
    Data:
        Version: 3 (0x2)
        Serial Number:
            b6:37:f3:7d:24:f8:0d:94:b6:fb:08:bb:25:6e:6e:8a
        Signature Algorithm: ecdsa-with-SHA256
        Issuer: CN=cn_80DtKKY4PQ7RLalA
        Validity
            Not Before: Jun 22 19:52:57 2023 GMT
            Not After : Sep 24 19:52:57 2025 GMT
        Subject: CN=A\xC3\x91OMSASHJAS
        Subject Public Key Info:
            Public Key Algorithm: id-ecPublicKey
                Public-Key: (256 bit)
                pub:
                    04:bd:60:30:b3:20:c6:75:f2:13:09:c4:27:5e:92:
                    6f:04:b4:32:23:43:18:54:5b:ae:1a:90:c1:0a:c1:
                    f5:20:21:c0:ea:48:42:d3:4c:d5:8b:a0:f4:8a:b2:
                    63:f9:fa:7e:0e:85:a2:87:d7:b5:48:fd:57:d2:d0:
                    0d:91:fb:e5:cf
                ASN1 OID: prime256v1
                NIST CURVE: P-256
        X509v3 extensions:
            X509v3 Basic Constraints: 
                CA:FALSE
            X509v3 Subject Key Identifier: 
                1E:43:DB:B7:CB:C0:86:1F:FB:5B:08:F7:0F:B7:CE:49:82:AD:2F:1C
            X509v3 Authority Key Identifier: 
                keyid:8A:44:7B:95:12:20:C6:90:9B:57:69:39:95:92:CD:70:96:4D:74:99
                DirName:/CN=cn_80DtKKY4PQ7RLalA
                serial:25:62:72:53:65:2C:6C:01:85:B1:96:26:10:86:58:E3:43:67:9A:3C
            X509v3 Extended Key Usage: 
                TLS Web Server Authentication
            X509v3 Key Usage: 
                Digital Signature, Key Encipherment
            X509v3 Subject Alternative Name: 
                DNS:AÑOMSASHJAS
    Signature Algorithm: ecdsa-with-SHA256
    Signature Value:
        30:44:02:20:21:8b:e1:f5:dc:29:a2:fe:74:e0:71:4f:66:db:
        4e:7d:2c:9d:1d:53:a6:56:ee:8d:d5:fb:b9:5a:b4:1d:89:28:
        02:20:01:c3:e9:df:c8:b9:20:59:c7:a6:47:34:dd:68:dc:4d:
        2e:a8:62:20:94:9d:fc:dc:29:01:47:03:ee:3c:50:87
-----BEGIN CERTIFICATE-----
MIIB9jCCAZ2gAwIBAgIRALY3830k+A2UtvsIuyVuboowCgYIKoZIzj0EAwIwHjEc
MBoGA1UEAwwTY25fODBEdEtLWTRQUTdSTGFsQTAeFw0yMzA2MjIxOTUyNTdaFw0y
NTA5MjQxOTUyNTdaMBcxFTATBgNVBAMMDEHDkU9NU0FTSEpBUzBZMBMGByqGSM49
AgEGCCqGSM49AwEHA0IABL1gMLMgxnXyEwnEJ16SbwS0MiNDGFRbrhqQwQrB9SAh
wOpIQtNM1Yug9IqyY/n6fg6FoofXtUj9V9LQDZH75c+jgcIwgb8wCQYDVR0TBAIw
ADAdBgNVHQ4EFgQUHkPbt8vAhh/7Wwj3D7fOSYKtLxwwWQYDVR0jBFIwUIAUikR7
lRIgxpCbV2k5lZLNcJZNdJmhIqQgMB4xHDAaBgNVBAMME2NuXzgwRHRLS1k0UFE3
UkxhbEGCFCViclNlLGwBhbGWJhCGWONDZ5o8MBMGA1UdJQQMMAoGCCsGAQUFBwMB
MAsGA1UdDwQEAwIFoDAWBgNVHREEDzANggtB0U9NU0FTSEpBUzAKBggqhkjOPQQD
AgNHADBEAiAhi+H13Cmi/nTgcU9m2059LJ0dU6ZW7o3V+7latB2JKAIgAcPp38i5
IFnHpkc03WjcTS6oYiCUnfzcKQFHA+48UIc=
-----END CERTIFICATE-----
