Certificate:
    Data:
        Version: 3 (0x2)
        Serial Number:
            82:41:bb:c4:eb:69:9f:b9:9a:ac:15:7e:2a:17:ce:d5
        Signature Algorithm: ecdsa-with-SHA256
        Issuer: CN=cn_80DtKKY4PQ7RLalA
        Validity
            Not Before: Jun 22 17:45:58 2023 GMT
            Not After : Sep 24 17:45:58 2025 GMT
        Subject: CN=Prueba
        Subject Public Key Info:
            Public Key Algorithm: id-ecPublicKey
                Public-Key: (256 bit)
                pub:
                    04:fb:48:28:e1:79:c7:91:85:20:fc:98:47:64:01:
                    c0:c3:21:37:8d:b2:10:66:f1:71:a3:23:d0:2d:5f:
                    06:e6:d3:c7:9a:f7:46:77:ef:a8:80:d7:57:f7:b9:
                    99:c2:eb:6f:73:8c:de:fb:e9:2c:b0:d7:53:96:5b:
                    93:42:52:cc:35
                ASN1 OID: prime256v1
                NIST CURVE: P-256
        X509v3 extensions:
            X509v3 Basic Constraints: 
                CA:FALSE
            X509v3 Subject Key Identifier: 
                88:AE:40:58:84:01:39:69:DE:C5:B9:39:35:5E:5B:3F:9B:B2:4F:AC
            X509v3 Authority Key Identifier: 
                keyid:8A:44:7B:95:12:20:C6:90:9B:57:69:39:95:92:CD:70:96:4D:74:99
                DirName:/CN=cn_80DtKKY4PQ7RLalA
                serial:25:62:72:53:65:2C:6C:01:85:B1:96:26:10:86:58:E3:43:67:9A:3C
            X509v3 Extended Key Usage: 
                TLS Web Server Authentication
            X509v3 Key Usage: 
                Digital Signature, Key Encipherment
            X509v3 Subject Alternative Name: 
                DNS:Prueba
    Signature Algorithm: ecdsa-with-SHA256
    Signature Value:
        30:46:02:21:00:b5:05:81:16:10:80:77:72:de:95:a4:2c:c7:
        01:77:7c:1d:9a:47:9b:e4:a1:53:c6:21:54:7f:f0:87:dc:3a:
        27:02:21:00:ab:b5:35:2d:7d:a5:29:d9:49:ae:6b:20:73:0a:
        38:a5:90:38:b9:36:9d:bb:82:68:f0:4e:dd:2b:07:61:5f:50
-----BEGIN CERTIFICATE-----
MIIB7TCCAZKgAwIBAgIRAIJBu8TraZ+5mqwVfioXztUwCgYIKoZIzj0EAwIwHjEc
MBoGA1UEAwwTY25fODBEdEtLWTRQUTdSTGFsQTAeFw0yMzA2MjIxNzQ1NThaFw0y
NTA5MjQxNzQ1NThaMBExDzANBgNVBAMMBlBydWViYTBZMBMGByqGSM49AgEGCCqG
SM49AwEHA0IABPtIKOF5x5GFIPyYR2QBwMMhN42yEGbxcaMj0C1fBubTx5r3Rnfv
qIDXV/e5mcLrb3OM3vvpLLDXU5Zbk0JSzDWjgb0wgbowCQYDVR0TBAIwADAdBgNV
HQ4EFgQUiK5AWIQBOWnexbk5NV5bP5uyT6wwWQYDVR0jBFIwUIAUikR7lRIgxpCb
V2k5lZLNcJZNdJmhIqQgMB4xHDAaBgNVBAMME2NuXzgwRHRLS1k0UFE3UkxhbEGC
FCViclNlLGwBhbGWJhCGWONDZ5o8MBMGA1UdJQQMMAoGCCsGAQUFBwMBMAsGA1Ud
DwQEAwIFoDARBgNVHREECjAIggZQcnVlYmEwCgYIKoZIzj0EAwIDSQAwRgIhALUF
gRYQgHdy3pWkLMcBd3wdmkeb5KFTxiFUf/CH3DonAiEAq7U1LX2lKdlJrmsgcwo4
pZA4uTadu4Jo8E7dKwdhX1A=
-----END CERTIFICATE-----
