Certificate:
    Data:
        Version: 3 (0x2)
        Serial Number:
            0f:78:80:f8:8a:9e:92:73:6b:62:60:07:db:ba:d9:0d
        Signature Algorithm: ecdsa-with-SHA256
        Issuer: CN=cn_80DtKKY4PQ7RLalA
        Validity
            Not Before: Jun 24 19:13:41 2023 GMT
            Not After : Sep 26 19:13:41 2025 GMT
        Subject: CN=VPNTesting
        Subject Public Key Info:
            Public Key Algorithm: id-ecPublicKey
                Public-Key: (256 bit)
                pub:
                    04:ce:fb:8e:36:7e:8e:1e:af:f2:3f:c7:5a:ed:37:
                    cd:a9:0c:56:4a:52:51:cb:e3:ae:fb:a0:22:8b:d2:
                    65:c6:82:7e:08:9d:ee:d4:e5:dc:6f:72:cd:0d:75:
                    e4:22:90:df:02:8f:ec:2b:d2:3b:b1:97:91:af:cc:
                    4d:be:57:cc:b2
                ASN1 OID: prime256v1
                NIST CURVE: P-256
        X509v3 extensions:
            X509v3 Basic Constraints: 
                CA:FALSE
            X509v3 Subject Key Identifier: 
                C3:8D:F9:D5:29:F1:DE:98:06:F0:C7:1E:6E:F2:ED:6B:D3:8C:AF:EC
            X509v3 Authority Key Identifier: 
                keyid:8A:44:7B:95:12:20:C6:90:9B:57:69:39:95:92:CD:70:96:4D:74:99
                DirName:/CN=cn_80DtKKY4PQ7RLalA
                serial:25:62:72:53:65:2C:6C:01:85:B1:96:26:10:86:58:E3:43:67:9A:3C
            X509v3 Extended Key Usage: 
                TLS Web Server Authentication
            X509v3 Key Usage: 
                Digital Signature, Key Encipherment
            X509v3 Subject Alternative Name: 
                DNS:VPNTesting
    Signature Algorithm: ecdsa-with-SHA256
    Signature Value:
        30:45:02:21:00:b3:79:4f:95:02:ca:0d:06:4b:81:f6:d9:18:
        5d:ef:df:54:49:02:88:c1:58:d2:5b:c0:d7:c6:a7:35:b1:b9:
        d2:02:20:4c:c0:ed:ae:eb:7d:e1:65:c7:6b:99:d8:c9:d3:10:
        3f:da:ca:c6:a3:b7:e4:b3:6d:a3:e2:8c:b5:02:76:7a:6a
-----BEGIN CERTIFICATE-----
MIIB8zCCAZmgAwIBAgIQD3iA+IqeknNrYmAH27rZDTAKBggqhkjOPQQDAjAeMRww
GgYDVQQDDBNjbl84MER0S0tZNFBRN1JMYWxBMB4XDTIzMDYyNDE5MTM0MVoXDTI1
MDkyNjE5MTM0MVowFTETMBEGA1UEAwwKVlBOVGVzdGluZzBZMBMGByqGSM49AgEG
CCqGSM49AwEHA0IABM77jjZ+jh6v8j/HWu03zakMVkpSUcvjrvugIovSZcaCfgid
7tTl3G9yzQ115CKQ3wKP7CvSO7GXka/MTb5XzLKjgcEwgb4wCQYDVR0TBAIwADAd
BgNVHQ4EFgQUw4351Snx3pgG8McebvLta9OMr+wwWQYDVR0jBFIwUIAUikR7lRIg
xpCbV2k5lZLNcJZNdJmhIqQgMB4xHDAaBgNVBAMME2NuXzgwRHRLS1k0UFE3Ukxh
bEGCFCViclNlLGwBhbGWJhCGWONDZ5o8MBMGA1UdJQQMMAoGCCsGAQUFBwMBMAsG
A1UdDwQEAwIFoDAVBgNVHREEDjAMggpWUE5UZXN0aW5nMAoGCCqGSM49BAMCA0gA
MEUCIQCzeU+VAsoNBkuB9tkYXe/fVEkCiMFY0lvA18anNbG50gIgTMDtrut94WXH
a5nYydMQP9rKxqO35LNto+KMtQJ2emo=
-----END CERTIFICATE-----
