Certificate:
    Data:
        Version: 3 (0x2)
        Serial Number:
            70:cd:90:1e:5e:ad:25:9a:f1:68:68:34:df:43:ed:55
        Signature Algorithm: ecdsa-with-SHA256
        Issuer: CN=cn_80DtKKY4PQ7RLalA
        Validity
            Not Before: Jun 21 17:10:31 2023 GMT
            Not After : Sep 23 17:10:31 2025 GMT
        Subject: CN=NewServer
        Subject Public Key Info:
            Public Key Algorithm: id-ecPublicKey
                Public-Key: (256 bit)
                pub:
                    04:83:25:43:c0:73:1a:b2:f8:d0:3a:86:94:55:4d:
                    04:24:6f:37:f1:32:f3:af:64:86:a9:b5:2c:f5:6f:
                    06:73:0b:3d:75:52:7f:6a:a3:c5:cf:f2:b7:32:8e:
                    68:53:3f:53:b1:14:ce:a9:9c:90:5e:74:aa:8c:0f:
                    9b:14:f8:96:1f
                ASN1 OID: prime256v1
                NIST CURVE: P-256
        X509v3 extensions:
            X509v3 Basic Constraints: 
                CA:FALSE
            X509v3 Subject Key Identifier: 
                66:CF:15:7D:23:71:68:59:AF:DD:AE:98:CF:4E:8A:25:D4:54:D8:A9
            X509v3 Authority Key Identifier: 
                keyid:8A:44:7B:95:12:20:C6:90:9B:57:69:39:95:92:CD:70:96:4D:74:99
                DirName:/CN=cn_80DtKKY4PQ7RLalA
                serial:25:62:72:53:65:2C:6C:01:85:B1:96:26:10:86:58:E3:43:67:9A:3C
            X509v3 Extended Key Usage: 
                TLS Web Server Authentication
            X509v3 Key Usage: 
                Digital Signature, Key Encipherment
            X509v3 Subject Alternative Name: 
                DNS:NewServer
    Signature Algorithm: ecdsa-with-SHA256
    Signature Value:
        30:44:02:20:3e:07:64:8f:b4:43:0a:db:1e:af:52:6f:04:09:
        08:08:5e:85:57:80:1c:9d:9f:e8:9c:ae:07:59:48:86:8f:41:
        02:20:6f:80:ce:b5:3a:bb:a7:af:de:49:f2:74:3a:62:a1:21:
        b4:89:39:b8:95:1b:07:25:cb:db:9d:31:7b:66:d5:16
-----BEGIN CERTIFICATE-----
MIIB8DCCAZegAwIBAgIQcM2QHl6tJZrxaGg030PtVTAKBggqhkjOPQQDAjAeMRww
GgYDVQQDDBNjbl84MER0S0tZNFBRN1JMYWxBMB4XDTIzMDYyMTE3MTAzMVoXDTI1
MDkyMzE3MTAzMVowFDESMBAGA1UEAwwJTmV3U2VydmVyMFkwEwYHKoZIzj0CAQYI
KoZIzj0DAQcDQgAEgyVDwHMasvjQOoaUVU0EJG838TLzr2SGqbUs9W8Gcws9dVJ/
aqPFz/K3Mo5oUz9TsRTOqZyQXnSqjA+bFPiWH6OBwDCBvTAJBgNVHRMEAjAAMB0G
A1UdDgQWBBRmzxV9I3FoWa/drpjPTool1FTYqTBZBgNVHSMEUjBQgBSKRHuVEiDG
kJtXaTmVks1wlk10maEipCAwHjEcMBoGA1UEAwwTY25fODBEdEtLWTRQUTdSTGFs
QYIUJWJyU2UsbAGFsZYmEIZY40NnmjwwEwYDVR0lBAwwCgYIKwYBBQUHAwEwCwYD
VR0PBAQDAgWgMBQGA1UdEQQNMAuCCU5ld1NlcnZlcjAKBggqhkjOPQQDAgNHADBE
AiA+B2SPtEMK2x6vUm8ECQgIXoVXgBydn+icrgdZSIaPQQIgb4DOtTq7p6/eSfJ0
OmKhIbSJObiVGwcly9udMXtm1RY=
-----END CERTIFICATE-----
