Certificate:
    Data:
        Version: 3 (0x2)
        Serial Number:
            7e:f6:6b:82:0a:35:75:c3:1f:76:b9:42:b6:72:2a:ea
        Signature Algorithm: ecdsa-with-SHA256
        Issuer: CN=cn_80DtKKY4PQ7RLalA
        Validity
            Not Before: Jun 26 17:28:49 2023 GMT
            Not After : Sep 28 17:28:49 2025 GMT
        Subject: CN=Example2
        Subject Public Key Info:
            Public Key Algorithm: id-ecPublicKey
                Public-Key: (256 bit)
                pub:
                    04:24:2e:66:15:21:ef:a6:2e:b1:40:a9:79:22:69:
                    6a:2a:1f:41:40:80:21:cb:c0:73:42:23:14:95:8e:
                    b2:b5:5c:36:16:9e:97:71:65:71:3f:bb:4a:0f:ab:
                    0b:64:f8:bf:7d:e5:af:76:b7:d6:25:39:ed:1b:a3:
                    35:ec:e2:02:4e
                ASN1 OID: prime256v1
                NIST CURVE: P-256
        X509v3 extensions:
            X509v3 Basic Constraints: 
                CA:FALSE
            X509v3 Subject Key Identifier: 
                C1:3E:DE:2B:CA:24:5B:0C:CE:03:10:01:56:3E:EB:F0:8A:20:DC:5E
            X509v3 Authority Key Identifier: 
                keyid:8A:44:7B:95:12:20:C6:90:9B:57:69:39:95:92:CD:70:96:4D:74:99
                DirName:/CN=cn_80DtKKY4PQ7RLalA
                serial:25:62:72:53:65:2C:6C:01:85:B1:96:26:10:86:58:E3:43:67:9A:3C
            X509v3 Extended Key Usage: 
                TLS Web Server Authentication
            X509v3 Key Usage: 
                Digital Signature, Key Encipherment
            X509v3 Subject Alternative Name: 
                DNS:Example2
    Signature Algorithm: ecdsa-with-SHA256
    Signature Value:
        30:46:02:21:00:bd:91:6b:cd:e6:46:37:bc:4a:4f:81:8a:6b:
        e1:a9:6d:1d:c0:56:ff:cd:16:ba:ed:09:0f:19:92:77:7c:60:
        5c:02:21:00:e2:40:84:c7:46:2d:0a:2d:eb:57:73:57:06:c2:
        5c:b3:b5:26:5b:76:7d:97:de:d3:63:de:a8:c4:6c:1d:03:b1
-----BEGIN CERTIFICATE-----
MIIB8DCCAZWgAwIBAgIQfvZrggo1dcMfdrlCtnIq6jAKBggqhkjOPQQDAjAeMRww
GgYDVQQDDBNjbl84MER0S0tZNFBRN1JMYWxBMB4XDTIzMDYyNjE3Mjg0OVoXDTI1
MDkyODE3Mjg0OVowEzERMA8GA1UEAwwIRXhhbXBsZTIwWTATBgcqhkjOPQIBBggq
hkjOPQMBBwNCAAQkLmYVIe+mLrFAqXkiaWoqH0FAgCHLwHNCIxSVjrK1XDYWnpdx
ZXE/u0oPqwtk+L995a92t9YlOe0bozXs4gJOo4G/MIG8MAkGA1UdEwQCMAAwHQYD
VR0OBBYEFME+3ivKJFsMzgMQAVY+6/CKINxeMFkGA1UdIwRSMFCAFIpEe5USIMaQ
m1dpOZWSzXCWTXSZoSKkIDAeMRwwGgYDVQQDDBNjbl84MER0S0tZNFBRN1JMYWxB
ghQlYnJTZSxsAYWxliYQhljjQ2eaPDATBgNVHSUEDDAKBggrBgEFBQcDATALBgNV
HQ8EBAMCBaAwEwYDVR0RBAwwCoIIRXhhbXBsZTIwCgYIKoZIzj0EAwIDSQAwRgIh
AL2Ra83mRje8Sk+BimvhqW0dwFb/zRa67QkPGZJ3fGBcAiEA4kCEx0YtCi3rV3NX
BsJcs7UmW3Z9l97TY96oxGwdA7E=
-----END CERTIFICATE-----
