Certificate:
    Data:
        Version: 3 (0x2)
        Serial Number:
            5b:cd:23:8a:f4:23:2b:7e:95:6d:6c:17:91:16:cf:a9
        Signature Algorithm: ecdsa-with-SHA256
        Issuer: CN=cn_80DtKKY4PQ7RLalA
        Validity
            Not Before: Jun 24 08:56:57 2023 GMT
            Not After : Sep 26 08:56:57 2025 GMT
        Subject: CN=CambiandoDIV
        Subject Public Key Info:
            Public Key Algorithm: id-ecPublicKey
                Public-Key: (256 bit)
                pub:
                    04:fc:0a:c9:0b:df:dd:b5:df:30:10:d8:4d:48:8f:
                    25:02:e5:ca:28:de:08:ee:f5:c9:65:19:3e:cc:6f:
                    67:3a:0a:ec:eb:9e:b2:24:80:b0:dd:76:da:62:2b:
                    d4:3b:90:e2:ad:29:ff:04:f1:e2:df:77:24:bc:b1:
                    af:7b:0d:8b:65
                ASN1 OID: prime256v1
                NIST CURVE: P-256
        X509v3 extensions:
            X509v3 Basic Constraints: 
                CA:FALSE
            X509v3 Subject Key Identifier: 
                5E:94:E6:2E:9C:36:E0:75:54:81:37:38:7F:E3:0E:77:37:2A:0B:C1
            X509v3 Authority Key Identifier: 
                keyid:8A:44:7B:95:12:20:C6:90:9B:57:69:39:95:92:CD:70:96:4D:74:99
                DirName:/CN=cn_80DtKKY4PQ7RLalA
                serial:25:62:72:53:65:2C:6C:01:85:B1:96:26:10:86:58:E3:43:67:9A:3C
            X509v3 Extended Key Usage: 
                TLS Web Server Authentication
            X509v3 Key Usage: 
                Digital Signature, Key Encipherment
            X509v3 Subject Alternative Name: 
                DNS:CambiandoDIV
    Signature Algorithm: ecdsa-with-SHA256
    Signature Value:
        30:44:02:20:0c:84:b2:52:d1:4a:41:6a:8d:a8:cb:f7:28:f6:
        b3:b2:44:ca:ee:f4:b2:5c:11:d8:2b:a7:a8:60:80:67:fb:3d:
        02:20:49:9e:3f:ce:a1:9b:e3:9f:ba:9c:03:39:01:ae:4a:de:
        6e:9a:51:08:66:70:48:b0:4e:f1:3b:a8:9f:2f:ac:90
-----BEGIN CERTIFICATE-----
MIIB9jCCAZ2gAwIBAgIQW80jivQjK36VbWwXkRbPqTAKBggqhkjOPQQDAjAeMRww
GgYDVQQDDBNjbl84MER0S0tZNFBRN1JMYWxBMB4XDTIzMDYyNDA4NTY1N1oXDTI1
MDkyNjA4NTY1N1owFzEVMBMGA1UEAwwMQ2FtYmlhbmRvRElWMFkwEwYHKoZIzj0C
AQYIKoZIzj0DAQcDQgAE/ArJC9/dtd8wENhNSI8lAuXKKN4I7vXJZRk+zG9nOgrs
656yJICw3XbaYivUO5DirSn/BPHi33ckvLGvew2LZaOBwzCBwDAJBgNVHRMEAjAA
MB0GA1UdDgQWBBRelOYunDbgdVSBNzh/4w53NyoLwTBZBgNVHSMEUjBQgBSKRHuV
EiDGkJtXaTmVks1wlk10maEipCAwHjEcMBoGA1UEAwwTY25fODBEdEtLWTRQUTdS
TGFsQYIUJWJyU2UsbAGFsZYmEIZY40NnmjwwEwYDVR0lBAwwCgYIKwYBBQUHAwEw
CwYDVR0PBAQDAgWgMBcGA1UdEQQQMA6CDENhbWJpYW5kb0RJVjAKBggqhkjOPQQD
AgNHADBEAiAMhLJS0UpBao2oy/co9rOyRMru9LJcEdgrp6hggGf7PQIgSZ4/zqGb
45+6nAM5Aa5K3m6aUQhmcEiwTvE7qJ8vrJA=
-----END CERTIFICATE-----
