Certificate:
    Data:
        Version: 3 (0x2)
        Serial Number:
            b9:ea:6a:dc:b8:d0:6f:cf:ef:e6:f0:2b:67:f9:d2:2e
        Signature Algorithm: ecdsa-with-SHA256
        Issuer: CN=cn_80DtKKY4PQ7RLalA
        Validity
            Not Before: Jun 23 21:23:40 2023 GMT
            Not After : Sep 25 21:23:40 2025 GMT
        Subject: CN=aaaaaaaaaaaaaa
        Subject Public Key Info:
            Public Key Algorithm: id-ecPublicKey
                Public-Key: (256 bit)
                pub:
                    04:04:77:ab:4a:d8:fb:89:5f:90:d5:2f:30:39:e4:
                    0f:17:3c:8f:fd:8f:d3:fd:8c:38:a2:b9:80:50:55:
                    6f:7e:95:05:09:71:3e:06:af:22:7c:e2:10:3f:cc:
                    35:fc:89:a2:5f:f6:45:0a:d6:ee:17:af:91:f0:5d:
                    88:d8:83:5f:93
                ASN1 OID: prime256v1
                NIST CURVE: P-256
        X509v3 extensions:
            X509v3 Basic Constraints: 
                CA:FALSE
            X509v3 Subject Key Identifier: 
                07:70:90:64:CD:2C:BE:FE:1D:F3:08:42:50:04:B9:CD:B3:A1:6D:A5
            X509v3 Authority Key Identifier: 
                keyid:8A:44:7B:95:12:20:C6:90:9B:57:69:39:95:92:CD:70:96:4D:74:99
                DirName:/CN=cn_80DtKKY4PQ7RLalA
                serial:25:62:72:53:65:2C:6C:01:85:B1:96:26:10:86:58:E3:43:67:9A:3C
            X509v3 Extended Key Usage: 
                TLS Web Server Authentication
            X509v3 Key Usage: 
                Digital Signature, Key Encipherment
            X509v3 Subject Alternative Name: 
                DNS:aaaaaaaaaaaaaa
    Signature Algorithm: ecdsa-with-SHA256
    Signature Value:
        30:44:02:20:18:e7:b3:6d:45:90:5d:9d:79:5a:94:32:70:66:
        ef:d9:a1:f3:03:a6:b3:3a:db:e3:b3:7d:75:06:96:71:65:1d:
        02:20:28:d0:8e:92:a0:1a:9d:83:91:b9:9c:e8:52:77:be:92:
        2c:12:0c:f1:d3:bf:d3:37:6a:4a:2a:ab:f4:ac:c9:cc
-----BEGIN CERTIFICATE-----
MIIB+zCCAaKgAwIBAgIRALnqaty40G/P7+bwK2f50i4wCgYIKoZIzj0EAwIwHjEc
MBoGA1UEAwwTY25fODBEdEtLWTRQUTdSTGFsQTAeFw0yMzA2MjMyMTIzNDBaFw0y
NTA5MjUyMTIzNDBaMBkxFzAVBgNVBAMMDmFhYWFhYWFhYWFhYWFhMFkwEwYHKoZI
zj0CAQYIKoZIzj0DAQcDQgAEBHerStj7iV+Q1S8wOeQPFzyP/Y/T/Yw4ormAUFVv
fpUFCXE+Bq8ifOIQP8w1/ImiX/ZFCtbuF6+R8F2I2INfk6OBxTCBwjAJBgNVHRME
AjAAMB0GA1UdDgQWBBQHcJBkzSy+/h3zCEJQBLnNs6FtpTBZBgNVHSMEUjBQgBSK
RHuVEiDGkJtXaTmVks1wlk10maEipCAwHjEcMBoGA1UEAwwTY25fODBEdEtLWTRQ
UTdSTGFsQYIUJWJyU2UsbAGFsZYmEIZY40NnmjwwEwYDVR0lBAwwCgYIKwYBBQUH
AwEwCwYDVR0PBAQDAgWgMBkGA1UdEQQSMBCCDmFhYWFhYWFhYWFhYWFhMAoGCCqG
SM49BAMCA0cAMEQCIBjns21FkF2deVqUMnBm79mh8wOmszrb47N9dQaWcWUdAiAo
0I6SoBqdg5G5nOhSd76SLBIM8dO/0zdqSiqr9KzJzA==
-----END CERTIFICATE-----
