Certificate:
    Data:
        Version: 3 (0x2)
        Serial Number:
            8d:ad:a6:47:06:34:c6:66:48:0d:2a:9e:f5:86:1e:21
        Signature Algorithm: ecdsa-with-SHA256
        Issuer: CN=cn_80DtKKY4PQ7RLalA
        Validity
            Not Before: Jul 12 16:52:50 2023 GMT
            Not After : Oct 14 16:52:50 2025 GMT
        Subject: CN=LOLOLLALSAPASKASK
        Subject Public Key Info:
            Public Key Algorithm: id-ecPublicKey
                Public-Key: (256 bit)
                pub:
                    04:16:cc:2f:eb:6f:c7:ed:88:ae:e6:15:11:ad:48:
                    62:0e:3f:ca:5d:d1:af:fc:5f:63:84:20:33:17:27:
                    91:1b:7d:12:a0:d8:1e:8e:4d:c3:28:9f:d7:b9:4b:
                    02:e4:5e:49:de:d3:03:94:fb:d6:a6:fc:99:5a:29:
                    ee:7a:eb:12:bf
                ASN1 OID: prime256v1
                NIST CURVE: P-256
        X509v3 extensions:
            X509v3 Basic Constraints: 
                CA:FALSE
            X509v3 Subject Key Identifier: 
                5E:B5:5D:82:3C:8C:28:EA:D9:B4:E9:1C:49:E5:8C:53:99:0D:73:30
            X509v3 Authority Key Identifier: 
                keyid:8A:44:7B:95:12:20:C6:90:9B:57:69:39:95:92:CD:70:96:4D:74:99
                DirName:/CN=cn_80DtKKY4PQ7RLalA
                serial:25:62:72:53:65:2C:6C:01:85:B1:96:26:10:86:58:E3:43:67:9A:3C
            X509v3 Extended Key Usage: 
                TLS Web Server Authentication
            X509v3 Key Usage: 
                Digital Signature, Key Encipherment
            X509v3 Subject Alternative Name: 
                DNS:LOLOLLALSAPASKASK
    Signature Algorithm: ecdsa-with-SHA256
    Signature Value:
        30:45:02:20:03:2f:13:87:25:91:f0:b6:d2:99:54:66:a8:00:
        ca:ca:0f:ba:f2:8a:2e:96:2c:a7:f1:1a:16:04:f0:ee:ba:3c:
        02:21:00:c6:c1:f3:2f:b2:02:90:3b:d1:5f:59:91:50:1a:28:
        09:2b:1d:a3:fb:a6:93:dc:a0:e3:a7:ba:8f:9e:ee:14:34
-----BEGIN CERTIFICATE-----
MIICAjCCAaigAwIBAgIRAI2tpkcGNMZmSA0qnvWGHiEwCgYIKoZIzj0EAwIwHjEc
MBoGA1UEAwwTY25fODBEdEtLWTRQUTdSTGFsQTAeFw0yMzA3MTIxNjUyNTBaFw0y
NTEwMTQxNjUyNTBaMBwxGjAYBgNVBAMMEUxPTE9MTEFMU0FQQVNLQVNLMFkwEwYH
KoZIzj0CAQYIKoZIzj0DAQcDQgAEFswv62/H7Yiu5hURrUhiDj/KXdGv/F9jhCAz
FyeRG30SoNgejk3DKJ/XuUsC5F5J3tMDlPvWpvyZWinueusSv6OByDCBxTAJBgNV
HRMEAjAAMB0GA1UdDgQWBBRetV2CPIwo6tm06RxJ5YxTmQ1zMDBZBgNVHSMEUjBQ
gBSKRHuVEiDGkJtXaTmVks1wlk10maEipCAwHjEcMBoGA1UEAwwTY25fODBEdEtL
WTRQUTdSTGFsQYIUJWJyU2UsbAGFsZYmEIZY40NnmjwwEwYDVR0lBAwwCgYIKwYB
BQUHAwEwCwYDVR0PBAQDAgWgMBwGA1UdEQQVMBOCEUxPTE9MTEFMU0FQQVNLQVNL
MAoGCCqGSM49BAMCA0gAMEUCIAMvE4clkfC20plUZqgAysoPuvKKLpYsp/EaFgTw
7ro8AiEAxsHzL7ICkDvRX1mRUBooCSsdo/umk9yg46e6j57uFDQ=
-----END CERTIFICATE-----
